Certificate:
    Data:
        Version: 3 (0x2)
        Serial Number: 0 (0x0)
    Signature Algorithm: sha256WithRSAEncryption
        Issuer: C = HU, L = Budapest, O = BalaSys IT Security, OU = Zorp GPL, CN = Zorp Trusted CA
        Validity
            Not Before: Nov 29 00:00:00 2017 GMT
            Not After : Nov 27 00:00:00 2027 GMT
        Subject: C = HU, L = Budapest, O = BalaSys IT Security, OU = Zorp GPL, CN = Zorp Trusted CA
        Subject Public Key Info:
            Public Key Algorithm: rsaEncryption
                Public-Key: (2048 bit)
                Modulus:
                    00:ba:16:1c:6d:5d:6d:fd:aa:a2:e5:44:58:be:69:
                    fa:b0:51:08:3f:72:79:a4:cb:a5:84:0c:fa:ba:5d:
                    65:6f:6e:f5:cb:ac:ed:a7:e9:5d:72:4d:a0:d7:70:
                    bd:b6:8c:fd:63:ad:e1:a0:28:e1:5b:28:06:b1:f4:
                    73:79:b8:19:9d:25:ba:e7:07:4c:8b:62:3b:39:f1:
                    56:db:57:3f:e2:b2:a2:da:16:59:9f:71:ee:ea:db:
                    51:0c:09:e5:3a:3c:8b:56:99:ba:b2:6a:eb:0d:ae:
                    2d:d0:1b:fe:dc:d8:90:b1:f8:bf:50:c1:ce:ac:0c:
                    94:c6:f4:bd:b7:3e:4a:c6:f6:84:43:ee:9a:ef:3a:
                    94:2a:72:da:b7:09:bc:31:05:5c:99:ab:93:f8:3c:
                    71:bf:85:dc:0b:73:49:9b:df:61:c6:4b:ae:62:06:
                    91:5d:cb:07:28:23:7c:30:96:2e:a0:85:f9:d9:51:
                    5a:5b:35:24:ee:cd:70:07:26:12:0e:dc:4f:33:f4:
                    7a:50:95:bb:3d:f8:33:3d:5f:cd:95:6e:73:4c:ce:
                    10:40:dc:0b:14:a5:82:6d:4e:49:3d:aa:0e:fb:23:
                    88:d6:59:51:16:5e:db:40:91:5a:6c:1e:37:77:e1:
                    14:dd:16:ac:a4:2a:aa:b3:e8:f5:31:27:9c:82:fc:
                    18:09
                Exponent: 65537 (0x10001)
        X509v3 extensions:
            X509v3 Basic Constraints: 
                CA:TRUE
            X509v3 Subject Key Identifier: 
                D8:8C:74:E3:8C:3D:91:0F:BF:ED:E6:1F:A8:D6:5E:D2:EE:E9:81:6A
            X509v3 Authority Key Identifier: 
                keyid:D8:8C:74:E3:8C:3D:91:0F:BF:ED:E6:1F:A8:D6:5E:D2:EE:E9:81:6A
                DirName:/C=HU/L=Budapest/O=BalaSys IT Security/OU=Zorp GPL/CN=Zorp Trusted CA
                serial:00

    Signature Algorithm: sha256WithRSAEncryption
         24:87:00:59:47:73:b3:fd:43:c4:4c:72:f1:b0:01:66:0b:71:
         47:5b:5a:84:5a:c3:b8:10:a6:57:8e:b2:36:e1:dc:df:74:fc:
         b6:3e:30:19:91:c4:36:21:c6:c4:54:47:b8:6e:99:cd:70:75:
         db:75:d5:f5:5f:64:74:77:9a:e6:ea:c4:00:20:c0:30:f1:2c:
         1b:37:2d:f1:05:dd:96:6a:a8:1c:aa:0c:97:7c:2e:64:8a:76:
         0b:de:56:72:df:00:17:3c:6b:cd:45:6e:a1:ff:1c:2c:49:47:
         99:5d:44:b4:1a:76:86:10:b5:a9:6b:15:ee:46:d3:10:33:a8:
         2c:a2:bb:cd:2e:ee:72:6b:7a:05:cd:fe:61:ce:35:80:58:14:
         ec:50:19:5a:71:22:0e:f0:2c:09:80:b0:26:ee:ed:62:c2:00:
         e6:87:4c:1c:15:4c:32:4e:78:ed:01:c7:cf:82:0b:31:c4:b2:
         24:82:83:c1:1e:f1:cd:38:3a:ca:d4:93:31:43:9f:2a:87:c6:
         49:b0:84:2d:c7:c2:b5:e6:f5:c8:e1:6d:83:5b:1b:cc:80:ef:
         59:0e:ad:1e:62:75:89:ae:29:3f:eb:a7:b0:77:a8:59:63:6b:
         40:79:43:75:de:fe:98:6e:49:68:41:56:ec:8a:3c:1e:27:dd:
         a0:cd:12:30
-----BEGIN CERTIFICATE-----
MIIEGjCCAwKgAwIBAgIBADANBgkqhkiG9w0BAQsFADBrMQswCQYDVQQGEwJIVTER
MA8GA1UEBwwIQnVkYXBlc3QxHDAaBgNVBAoME0JhbGFTeXMgSVQgU2VjdXJpdHkx
ETAPBgNVBAsMCFpvcnAgR1BMMRgwFgYDVQQDDA9ab3JwIFRydXN0ZWQgQ0EwHhcN
MTcxMTI5MDAwMDAwWhcNMjcxMTI3MDAwMDAwWjBrMQswCQYDVQQGEwJIVTERMA8G
A1UEBwwIQnVkYXBlc3QxHDAaBgNVBAoME0JhbGFTeXMgSVQgU2VjdXJpdHkxETAP
BgNVBAsMCFpvcnAgR1BMMRgwFgYDVQQDDA9ab3JwIFRydXN0ZWQgQ0EwggEiMA0G
CSqGSIb3DQEBAQUAA4IBDwAwggEKAoIBAQC6FhxtXW39qqLlRFi+afqwUQg/cnmk
y6WEDPq6XWVvbvXLrO2n6V1yTaDXcL22jP1jreGgKOFbKAax9HN5uBmdJbrnB0yL
Yjs58VbbVz/isqLaFlmfce7q21EMCeU6PItWmbqyausNri3QG/7c2JCx+L9Qwc6s
DJTG9L23PkrG9oRD7prvOpQqctq3CbwxBVyZq5P4PHG/hdwLc0mb32HGS65iBpFd
ywcoI3wwli6ghfnZUVpbNSTuzXAHJhIO3E8z9HpQlbs9+DM9X82VbnNMzhBA3AsU
pYJtTkk9qg77I4jWWVEWXttAkVpsHjd34RTdFqykKqqz6PUxJ5yC/BgJAgMBAAGj
gcgwgcUwDAYDVR0TBAUwAwEB/zAdBgNVHQ4EFgQU2Ix044w9kQ+/7eYfqNZe0u7p
gWowgZUGA1UdIwSBjTCBioAU2Ix044w9kQ+/7eYfqNZe0u7pgWqhb6RtMGsxCzAJ
BgNVBAYTAkhVMREwDwYDVQQHDAhCdWRhcGVzdDEcMBoGA1UECgwTQmFsYVN5cyBJ
VCBTZWN1cml0eTERMA8GA1UECwwIWm9ycCBHUEwxGDAWBgNVBAMMD1pvcnAgVHJ1
c3RlZCBDQYIBADANBgkqhkiG9w0BAQsFAAOCAQEAJIcAWUdzs/1DxExy8bABZgtx
R1tahFrDuBCmV46yNuHc33T8tj4wGZHENiHGxFRHuG6ZzXB123XV9V9kdHea5urE
ACDAMPEsGzct8QXdlmqoHKoMl3wuZIp2C95Wct8AFzxrzUVuof8cLElHmV1EtBp2
hhC1qWsV7kbTEDOoLKK7zS7ucmt6Bc3+Yc41gFgU7FAZWnEiDvAsCYCwJu7tYsIA
5odMHBVMMk547QHHz4ILMcSyJIKDwR7xzTg6ytSTMUOfKofGSbCELcfCteb1yOFt
g1sbzIDvWQ6tHmJ1ia4pP+unsHeoWWNrQHlDdd7+mG5JaEFW7Io8HifdoM0SMA==
-----END CERTIFICATE-----
