Certificate:
    Data:
        Version: 3 (0x2)
        Serial Number: 0 (0x0)
    Signature Algorithm: sha256WithRSAEncryption
        Issuer: C = HU, L = Budapest, O = BalaSys IT Security, OU = Zorp GPL, CN = Zorp Untrusted CA
        Validity
            Not Before: Nov 29 00:00:00 2017 GMT
            Not After : Nov 27 00:00:00 2027 GMT
        Subject: C = HU, L = Budapest, O = BalaSys IT Security, OU = Zorp GPL, CN = Zorp Untrusted CA
        Subject Public Key Info:
            Public Key Algorithm: rsaEncryption
                Public-Key: (2048 bit)
                Modulus:
                    00:b4:62:cb:7a:ee:36:fd:60:09:c5:8f:45:6c:7a:
                    62:ca:c1:61:2c:6e:32:08:40:29:9e:0c:14:e7:6c:
                    99:d6:34:86:50:b8:ca:7f:50:06:73:5d:81:2a:ee:
                    3a:4c:4d:3a:d9:28:a3:bd:68:fb:2c:74:69:1c:a1:
                    6b:6f:89:db:48:04:71:39:81:35:02:74:71:7f:be:
                    c3:3e:b9:76:36:c9:08:2d:08:03:59:18:97:df:59:
                    72:d2:0c:b5:f1:04:19:bc:0e:9a:9c:fb:bc:e8:24:
                    0c:a6:bf:f5:f5:ab:b6:09:5a:b0:0c:c0:c7:17:db:
                    de:95:9e:5b:35:71:5b:37:09:66:ff:d2:2d:a5:55:
                    5c:4a:b8:c1:0b:00:01:7b:e3:db:7d:1a:b8:82:79:
                    09:23:7e:dc:4e:00:a8:35:cd:be:0b:ad:74:76:3c:
                    9f:b1:2e:d6:12:43:88:3b:80:5f:a2:f3:7d:6f:5b:
                    4a:77:97:ac:41:03:d1:6c:78:cf:51:09:5c:f2:20:
                    53:86:9d:9c:f7:27:3e:ec:8f:58:f6:96:cd:05:8c:
                    31:6e:8b:a7:e1:32:0a:18:4b:ce:95:19:a5:4d:f8:
                    20:90:bc:5d:82:8a:9e:69:6d:85:38:1c:9b:30:db:
                    d8:5f:7c:37:11:77:e3:36:50:90:d2:e6:64:09:5e:
                    a7:8b
                Exponent: 65537 (0x10001)
        X509v3 extensions:
            X509v3 Basic Constraints: 
                CA:TRUE
            X509v3 Subject Key Identifier: 
                6C:BF:D9:59:2E:06:B7:E6:F4:9F:1E:5F:9D:48:6E:A5:DA:62:40:BD
            X509v3 Authority Key Identifier: 
                keyid:6C:BF:D9:59:2E:06:B7:E6:F4:9F:1E:5F:9D:48:6E:A5:DA:62:40:BD
                DirName:/C=HU/L=Budapest/O=BalaSys IT Security/OU=Zorp GPL/CN=Zorp Untrusted CA
                serial:00

    Signature Algorithm: sha256WithRSAEncryption
         5d:e7:81:8d:c1:76:55:8c:d6:0c:8b:06:2e:e6:7f:ca:ae:2b:
         e6:1c:26:b0:1d:d3:9c:75:7c:f2:31:3c:fc:53:eb:89:6d:70:
         9c:09:7a:a8:95:af:f8:32:18:b3:be:2f:2e:0e:76:b8:0d:12:
         57:7a:9a:12:7c:db:27:6c:58:d8:c6:d7:be:f4:52:78:59:15:
         fb:97:b8:ee:35:fd:bb:75:1e:24:75:bb:a2:99:a4:39:78:dc:
         f6:fb:ba:14:a7:99:de:f7:8d:ea:cb:24:24:43:fc:24:ed:2d:
         0f:b5:83:f2:96:92:a8:98:78:f4:60:51:d2:8a:eb:f8:1e:ac:
         57:86:e9:29:8e:9a:bf:1e:0d:53:3f:5c:b5:e0:65:f5:48:0c:
         5f:78:2c:2c:29:69:4b:a5:1e:c0:7d:de:b3:0f:b5:bd:e1:46:
         ff:18:2a:41:13:44:d4:e7:a8:d0:76:67:4e:04:b3:e7:d1:69:
         a1:af:8b:c5:78:33:26:2f:ee:21:58:a8:d5:4c:2f:24:58:1c:
         66:34:35:e1:3b:48:b3:12:cd:2d:49:5f:81:2c:e3:73:89:00:
         5c:81:02:d5:e8:31:cf:36:a2:f9:96:ed:15:51:6d:d6:d8:4c:
         2e:67:97:ab:3c:0a:02:9e:ea:80:4f:d0:13:3a:ea:14:8a:e3:
         24:30:1c:1f
-----BEGIN CERTIFICATE-----
MIIEIDCCAwigAwIBAgIBADANBgkqhkiG9w0BAQsFADBtMQswCQYDVQQGEwJIVTER
MA8GA1UEBwwIQnVkYXBlc3QxHDAaBgNVBAoME0JhbGFTeXMgSVQgU2VjdXJpdHkx
ETAPBgNVBAsMCFpvcnAgR1BMMRowGAYDVQQDDBFab3JwIFVudHJ1c3RlZCBDQTAe
Fw0xNzExMjkwMDAwMDBaFw0yNzExMjcwMDAwMDBaMG0xCzAJBgNVBAYTAkhVMREw
DwYDVQQHDAhCdWRhcGVzdDEcMBoGA1UECgwTQmFsYVN5cyBJVCBTZWN1cml0eTER
MA8GA1UECwwIWm9ycCBHUEwxGjAYBgNVBAMMEVpvcnAgVW50cnVzdGVkIENBMIIB
IjANBgkqhkiG9w0BAQEFAAOCAQ8AMIIBCgKCAQEAtGLLeu42/WAJxY9FbHpiysFh
LG4yCEApngwU52yZ1jSGULjKf1AGc12BKu46TE062SijvWj7LHRpHKFrb4nbSARx
OYE1AnRxf77DPrl2NskILQgDWRiX31ly0gy18QQZvA6anPu86CQMpr/19au2CVqw
DMDHF9velZ5bNXFbNwlm/9ItpVVcSrjBCwABe+PbfRq4gnkJI37cTgCoNc2+C610
djyfsS7WEkOIO4BfovN9b1tKd5esQQPRbHjPUQlc8iBThp2c9yc+7I9Y9pbNBYwx
boun4TIKGEvOlRmlTfggkLxdgoqeaW2FOBybMNvYX3w3EXfjNlCQ0uZkCV6niwID
AQABo4HKMIHHMAwGA1UdEwQFMAMBAf8wHQYDVR0OBBYEFGy/2VkuBrfm9J8eX51I
bqXaYkC9MIGXBgNVHSMEgY8wgYyAFGy/2VkuBrfm9J8eX51IbqXaYkC9oXGkbzBt
MQswCQYDVQQGEwJIVTERMA8GA1UEBwwIQnVkYXBlc3QxHDAaBgNVBAoME0JhbGFT
eXMgSVQgU2VjdXJpdHkxETAPBgNVBAsMCFpvcnAgR1BMMRowGAYDVQQDDBFab3Jw
IFVudHJ1c3RlZCBDQYIBADANBgkqhkiG9w0BAQsFAAOCAQEAXeeBjcF2VYzWDIsG
LuZ/yq4r5hwmsB3TnHV88jE8/FPriW1wnAl6qJWv+DIYs74vLg52uA0SV3qaEnzb
J2xY2MbXvvRSeFkV+5e47jX9u3UeJHW7opmkOXjc9vu6FKeZ3veN6sskJEP8JO0t
D7WD8paSqJh49GBR0orr+B6sV4bpKY6avx4NUz9cteBl9UgMX3gsLClpS6UewH3e
sw+1veFG/xgqQRNE1Oeo0HZnTgSz59Fpoa+LxXgzJi/uIVio1UwvJFgcZjQ14TtI
sxLNLUlfgSzjc4kAXIEC1egxzzai+ZbtFVFt1thMLmeXqzwKAp7qgE/QEzrqFIrj
JDAcHw==
-----END CERTIFICATE-----
